; Function Attrs: null_pointer_is_valid sspstrong uwtable
define internal fastcc void @decode_GIAS_SubmitStandingQueryRequest_get_number_of_hits_in_interval(ptr noundef %0, ptr noundef %1, ptr noundef %2, ptr noundef %3, ptr noundef %4, ptr noundef readonly captures(none) %5, i1 noundef zeroext %6) unnamed_addr #0 {
  %8 = getelementptr inbounds nuw i8, ptr %5, i64 7
  %9 = load i8, ptr %8, align 1
  switch i8 %9, label %27 [
    i8 0, label %10
    i8 1, label %16
  ]

10:                                               ; preds = %7
  %11 = load i32, ptr @hf_GIAS_SubmitStandingQueryRequest_get_number_of_hits_in_interval_interval, align 4
  %12 = load i32, ptr %4, align 4
  %13 = add i32 %12, -4
  %14 = tail call i32 @get_CDR_ulong(ptr noundef %0, ptr noundef %4, i1 noundef zeroext %6, i32 noundef 12)
  %15 = tail call ptr @proto_tree_add_uint(ptr noundef %2, i32 noundef %11, ptr noundef %0, i32 noundef %13, i32 noundef 4, i32 noundef %14)
  br label %30

16:                                               ; preds = %7
  %17 = getelementptr inbounds nuw i8, ptr %5, i64 16
  %18 = load i32, ptr %17, align 8
  switch i32 %18, label %25 [
    i32 0, label %19
    i32 1, label %30
  ]

19:                                               ; preds = %16
  %20 = load i32, ptr @hf_GIAS_SubmitStandingQueryRequest_get_number_of_hits_in_interval_return, align 4
  %21 = load i32, ptr %4, align 4
  %22 = add i32 %21, -4
  %23 = tail call i32 @get_CDR_ulong(ptr noundef %0, ptr noundef %4, i1 noundef zeroext %6, i32 noundef 12)
  %24 = tail call ptr @proto_tree_add_uint(ptr noundef %2, i32 noundef %20, ptr noundef %0, i32 noundef %22, i32 noundef 4, i32 noundef %23)
  br label %30

25:                                               ; preds = %16
  %26 = tail call ptr (ptr, ptr, ptr, ptr, ...) @expert_add_info_format(ptr noundef %1, ptr noundef %3, ptr noundef nonnull @ei_gias_unknown_exception, ptr noundef nonnull @.str.826, i32 noundef %18)
  br label %30

27:                                               ; preds = %7
  %28 = zext i8 %9 to i32
  %29 = tail call ptr (ptr, ptr, ptr, ptr, ...) @expert_add_info_format(ptr noundef %1, ptr noundef %3, ptr noundef nonnull @ei_gias_unknown_giop_msg, ptr noundef nonnull @.str.827, i32 noundef %28)
  br label %30

30:                                               ; preds = %16, %19, %25, %27, %10
  ret void
}